; Function Attrs: nounwind sspstrong uwtable
define internal fastcc i32 @rb_eaccess(i64 noundef %0, i32 noundef range(i32 1, 5) %1) unnamed_addr #0 {
  %3 = alloca i64, align 8
  %4 = alloca i64, align 8
  %5 = alloca %struct.access_arg, align 8
  %6 = alloca ptr, align 8
  store i64 %0, ptr %4, align 8, !tbaa !12
  call void @llvm.lifetime.start.p0(i64 16, ptr nonnull %5) #22
  call void @llvm.lifetime.start.p0(i64 8, ptr nonnull %3) #22
  %7 = icmp eq i64 %0, 0
  %8 = and i64 %0, 7
  %9 = icmp ne i64 %8, 0
  %10 = or i1 %7, %9
  br i1 %10, label %rbimpl_RB_TYPE_P_fastpath.exit.thread.i.i, label %rbimpl_RB_TYPE_P_fastpath.exit.i.i

rbimpl_RB_TYPE_P_fastpath.exit.i.i:               ; preds = %2
  %11 = inttoptr i64 %0 to ptr
  %12 = load i64, ptr %11, align 8, !tbaa !7
  %13 = and i64 %12, 31
  %14 = icmp eq i64 %13, 5
  br i1 %14, label %rb_get_path.exit, label %rbimpl_RB_TYPE_P_fastpath.exit.thread.i.i

rbimpl_RB_TYPE_P_fastpath.exit.thread.i.i:        ; preds = %rbimpl_RB_TYPE_P_fastpath.exit.i.i, %2
  %.pr.i.i.i = load i64, ptr @rb_get_path_check_to_string.rbimpl_id, align 8, !tbaa !12
  %.not4.i.i.i = icmp eq i64 %.pr.i.i.i, 0
  br i1 %.not4.i.i.i, label %.lr.ph.i.i.i, label %rbimpl_intern_const.exit.i.i

.lr.ph.i.i.i:                                     ; preds = %rbimpl_RB_TYPE_P_fastpath.exit.thread.i.i, %.lr.ph.i.i.i
  %15 = tail call i64 @rb_intern2(ptr noundef nonnull @.str, i64 noundef 7) #22
  store i64 %15, ptr @rb_get_path_check_to_string.rbimpl_id, align 8, !tbaa !12
  %.not.i.i.i = icmp eq i64 %15, 0
  br i1 %.not.i.i.i, label %.lr.ph.i.i.i, label %rbimpl_intern_const.exit.i.i, !llvm.loop !13

rbimpl_intern_const.exit.i.i:                     ; preds = %.lr.ph.i.i.i, %rbimpl_RB_TYPE_P_fastpath.exit.thread.i.i
  %.lcssa.i.i.i = phi i64 [ %.pr.i.i.i, %rbimpl_RB_TYPE_P_fastpath.exit.thread.i.i ], [ %15, %.lr.ph.i.i.i ]
  %16 = tail call i64 @rb_check_funcall_default(i64 noundef %0, i64 noundef %.lcssa.i.i.i, i32 noundef 0, ptr noundef null, i64 noundef %0) #22
  store i64 %16, ptr %3, align 8, !tbaa !12
  %17 = call i64 @rb_string_value(ptr noundef nonnull %3) #22
  %18 = load i64, ptr %3, align 8, !tbaa !12
  br label %rb_get_path.exit

rb_get_path.exit:                                 ; preds = %rbimpl_RB_TYPE_P_fastpath.exit.i.i, %rbimpl_intern_const.exit.i.i
  %.0.i.i = phi i64 [ %18, %rbimpl_intern_const.exit.i.i ], [ %0, %rbimpl_RB_TYPE_P_fastpath.exit.i.i ]
  call void @llvm.lifetime.end.p0(i64 8, ptr nonnull %3) #22
  %19 = call i64 @rb_get_path_check_convert(i64 noundef %.0.i.i)
  call void @llvm.lifetime.start.p0(i64 8, ptr nonnull %6) #22
  store ptr %4, ptr %6, align 8, !tbaa !46
  call void asm sideeffect "", "*m,~{dirflag},~{fpsr},~{flags}"(ptr nonnull elementtype(ptr) %6) #22, !srcloc !326
  %20 = load ptr, ptr %6, align 8, !tbaa !46
  call void @llvm.lifetime.end.p0(i64 8, ptr nonnull %6) #22
  store volatile i64 %19, ptr %20, align 8, !tbaa !12
  %21 = call ptr @rb_string_value_cstr(ptr noundef nonnull %4) #22
  store ptr %21, ptr %5, align 8, !tbaa !327
  %22 = getelementptr inbounds nuw i8, ptr %5, i64 8
  store i32 %1, ptr %22, align 8, !tbaa !329
  %23 = call ptr @rb_nogvl(ptr noundef nonnull @nogvl_eaccess, ptr noundef nonnull %5, ptr noundef nonnull inttoptr (i64 -1 to ptr), ptr noundef null, i32 noundef 4) #22
  %24 = ptrtoint ptr %23 to i64
  %25 = trunc i64 %24 to i32
  call void @llvm.lifetime.end.p0(i64 16, ptr nonnull %5) #22
  ret i32 %25
}